target datalayout = "e-m:e-p270:32:32-p271:32:32-p272:64:64-i64:64-i128:128-f80:128-n8:16:32:64-S128"
target triple = "x86_64-pc-linux-gnu"

%struct.ColumnDef = type { i32, ptr, ptr, ptr, i16, i8, i8, i8, i8, ptr, ptr, ptr, i8, ptr, i8, ptr, i32, ptr, ptr, i32 }

; Function Attrs: nounwind uwtable
define internal zeroext i1 @_equalColumnDef(ptr noundef %0, ptr noundef %1) #0 {
  %3 = alloca i1, align 1
  %4 = alloca ptr, align 8
  %5 = alloca ptr, align 8
  store ptr %0, ptr %4, align 8
  store ptr %1, ptr %5, align 8
  br label %6

6:                                                ; preds = %2
  %7 = load ptr, ptr %4, align 8
  %8 = getelementptr inbounds nuw %struct.ColumnDef, ptr %7, i32 0, i32 1
  %9 = load ptr, ptr %8, align 8
  %10 = icmp ne ptr %9, null
  br i1 %10, label %11, label %25

11:                                               ; preds = %6
  %12 = load ptr, ptr %5, align 8
  %13 = getelementptr inbounds nuw %struct.ColumnDef, ptr %12, i32 0, i32 1
  %14 = load ptr, ptr %13, align 8
  %15 = icmp ne ptr %14, null
  br i1 %15, label %16, label %25

16:                                               ; preds = %11
  %17 = load ptr, ptr %4, align 8
  %18 = getelementptr inbounds nuw %struct.ColumnDef, ptr %17, i32 0, i32 1
  %19 = load ptr, ptr %18, align 8
  %20 = load ptr, ptr %5, align 8
  %21 = getelementptr inbounds nuw %struct.ColumnDef, ptr %20, i32 0, i32 1
  %22 = load ptr, ptr %21, align 8
  %23 = call i32 @strcmp(ptr noundef %19, ptr noundef %22) #8
  %24 = icmp eq i32 %23, 0
  br i1 %24, label %34, label %33

25:                                               ; preds = %11, %6
  %26 = load ptr, ptr %4, align 8
  %27 = getelementptr inbounds nuw %struct.ColumnDef, ptr %26, i32 0, i32 1
  %28 = load ptr, ptr %27, align 8
  %29 = load ptr, ptr %5, align 8
  %30 = getelementptr inbounds nuw %struct.ColumnDef, ptr %29, i32 0, i32 1
  %31 = load ptr, ptr %30, align 8
  %32 = icmp eq ptr %28, %31
  br i1 %32, label %34, label %33

33:                                               ; preds = %25, %16
  store i1 false, ptr %3, align 1
  br label %281

34:                                               ; preds = %25, %16
  br label %35

35:                                               ; preds = %34
  br label %36

36:                                               ; preds = %35
  %37 = load ptr, ptr %4, align 8
  %38 = getelementptr inbounds nuw %struct.ColumnDef, ptr %37, i32 0, i32 2
  %39 = load ptr, ptr %38, align 8
  %40 = load ptr, ptr %5, align 8
  %41 = getelementptr inbounds nuw %struct.ColumnDef, ptr %40, i32 0, i32 2
  %42 = load ptr, ptr %41, align 8
  %43 = call zeroext i1 @equal(ptr noundef %39, ptr noundef %42)
  br i1 %43, label %45, label %44

44:                                               ; preds = %36
  store i1 false, ptr %3, align 1
  br label %281

45:                                               ; preds = %36
  br label %46

46:                                               ; preds = %45
  br label %47

47:                                               ; preds = %46
  %48 = load ptr, ptr %4, align 8
  %49 = getelementptr inbounds nuw %struct.ColumnDef, ptr %48, i32 0, i32 3
  %50 = load ptr, ptr %49, align 8
  %51 = icmp ne ptr %50, null
  br i1 %51, label %52, label %66

52:                                               ; preds = %47
  %53 = load ptr, ptr %5, align 8
  %54 = getelementptr inbounds nuw %struct.ColumnDef, ptr %53, i32 0, i32 3
  %55 = load ptr, ptr %54, align 8
  %56 = icmp ne ptr %55, null
  br i1 %56, label %57, label %66

57:                                               ; preds = %52
  %58 = load ptr, ptr %4, align 8
  %59 = getelementptr inbounds nuw %struct.ColumnDef, ptr %58, i32 0, i32 3
  %60 = load ptr, ptr %59, align 8
  %61 = load ptr, ptr %5, align 8
  %62 = getelementptr inbounds nuw %struct.ColumnDef, ptr %61, i32 0, i32 3
  %63 = load ptr, ptr %62, align 8
  %64 = call i32 @strcmp(ptr noundef %60, ptr noundef %63) #8
  %65 = icmp eq i32 %64, 0
  br i1 %65, label %75, label %74

66:                                               ; preds = %52, %47
  %67 = load ptr, ptr %4, align 8
  %68 = getelementptr inbounds nuw %struct.ColumnDef, ptr %67, i32 0, i32 3
  %69 = load ptr, ptr %68, align 8
  %70 = load ptr, ptr %5, align 8
  %71 = getelementptr inbounds nuw %struct.ColumnDef, ptr %70, i32 0, i32 3
  %72 = load ptr, ptr %71, align 8
  %73 = icmp eq ptr %69, %72
  br i1 %73, label %75, label %74

74:                                               ; preds = %66, %57
  store i1 false, ptr %3, align 1
  br label %281

75:                                               ; preds = %66, %57
  br label %76

76:                                               ; preds = %75
  br label %77

77:                                               ; preds = %76
  %78 = load ptr, ptr %4, align 8
  %79 = getelementptr inbounds nuw %struct.ColumnDef, ptr %78, i32 0, i32 4
  %80 = load i16, ptr %79, align 8
  %81 = sext i16 %80 to i32
  %82 = load ptr, ptr %5, align 8
  %83 = getelementptr inbounds nuw %struct.ColumnDef, ptr %82, i32 0, i32 4
  %84 = load i16, ptr %83, align 8
  %85 = sext i16 %84 to i32
  %86 = icmp ne i32 %81, %85
  br i1 %86, label %87, label %88

87:                                               ; preds = %77
  store i1 false, ptr %3, align 1
  br label %281

88:                                               ; preds = %77
  br label %89

89:                                               ; preds = %88
  br label %90

90:                                               ; preds = %89
  %91 = load ptr, ptr %4, align 8
  %92 = getelementptr inbounds nuw %struct.ColumnDef, ptr %91, i32 0, i32 5
  %93 = load i8, ptr %92, align 2, !range !4, !noundef !5
  %94 = trunc i8 %93 to i1
  %95 = zext i1 %94 to i32
  %96 = load ptr, ptr %5, align 8
  %97 = getelementptr inbounds nuw %struct.ColumnDef, ptr %96, i32 0, i32 5
  %98 = load i8, ptr %97, align 2, !range !4, !noundef !5
  %99 = trunc i8 %98 to i1
  %100 = zext i1 %99 to i32
  %101 = icmp ne i32 %95, %100
  br i1 %101, label %102, label %103

102:                                              ; preds = %90
  store i1 false, ptr %3, align 1
  br label %281

103:                                              ; preds = %90
  br label %104

104:                                              ; preds = %103
  br label %105

105:                                              ; preds = %104
  %106 = load ptr, ptr %4, align 8
  %107 = getelementptr inbounds nuw %struct.ColumnDef, ptr %106, i32 0, i32 6
  %108 = load i8, ptr %107, align 1, !range !4, !noundef !5
  %109 = trunc i8 %108 to i1
  %110 = zext i1 %109 to i32
  %111 = load ptr, ptr %5, align 8
  %112 = getelementptr inbounds nuw %struct.ColumnDef, ptr %111, i32 0, i32 6
  %113 = load i8, ptr %112, align 1, !range !4, !noundef !5
  %114 = trunc i8 %113 to i1
  %115 = zext i1 %114 to i32
  %116 = icmp ne i32 %110, %115
  br i1 %116, label %117, label %118

117:                                              ; preds = %105
  store i1 false, ptr %3, align 1
  br label %281

118:                                              ; preds = %105
  br label %119

119:                                              ; preds = %118
  br label %120

120:                                              ; preds = %119
  %121 = load ptr, ptr %4, align 8
  %122 = getelementptr inbounds nuw %struct.ColumnDef, ptr %121, i32 0, i32 7
  %123 = load i8, ptr %122, align 4, !range !4, !noundef !5
  %124 = trunc i8 %123 to i1
  %125 = zext i1 %124 to i32
  %126 = load ptr, ptr %5, align 8
  %127 = getelementptr inbounds nuw %struct.ColumnDef, ptr %126, i32 0, i32 7
  %128 = load i8, ptr %127, align 4, !range !4, !noundef !5
  %129 = trunc i8 %128 to i1
  %130 = zext i1 %129 to i32
  %131 = icmp ne i32 %125, %130
  br i1 %131, label %132, label %133

132:                                              ; preds = %120
  store i1 false, ptr %3, align 1
  br label %281

133:                                              ; preds = %120
  br label %134

134:                                              ; preds = %133
  br label %135

135:                                              ; preds = %134
  %136 = load ptr, ptr %4, align 8
  %137 = getelementptr inbounds nuw %struct.ColumnDef, ptr %136, i32 0, i32 8
  %138 = load i8, ptr %137, align 1
  %139 = sext i8 %138 to i32
  %140 = load ptr, ptr %5, align 8
  %141 = getelementptr inbounds nuw %struct.ColumnDef, ptr %140, i32 0, i32 8
  %142 = load i8, ptr %141, align 1
  %143 = sext i8 %142 to i32
  %144 = icmp ne i32 %139, %143
  br i1 %144, label %145, label %146

145:                                              ; preds = %135
  store i1 false, ptr %3, align 1
  br label %281

146:                                              ; preds = %135
  br label %147

147:                                              ; preds = %146
  br label %148

148:                                              ; preds = %147
  %149 = load ptr, ptr %4, align 8
  %150 = getelementptr inbounds nuw %struct.ColumnDef, ptr %149, i32 0, i32 9
  %151 = load ptr, ptr %150, align 8
  %152 = icmp ne ptr %151, null
  br i1 %152, label %153, label %167

153:                                              ; preds = %148
  %154 = load ptr, ptr %5, align 8
  %155 = getelementptr inbounds nuw %struct.ColumnDef, ptr %154, i32 0, i32 9
  %156 = load ptr, ptr %155, align 8
  %157 = icmp ne ptr %156, null
  br i1 %157, label %158, label %167

158:                                              ; preds = %153
  %159 = load ptr, ptr %4, align 8
  %160 = getelementptr inbounds nuw %struct.ColumnDef, ptr %159, i32 0, i32 9
  %161 = load ptr, ptr %160, align 8
  %162 = load ptr, ptr %5, align 8
  %163 = getelementptr inbounds nuw %struct.ColumnDef, ptr %162, i32 0, i32 9
  %164 = load ptr, ptr %163, align 8
  %165 = call i32 @strcmp(ptr noundef %161, ptr noundef %164) #8
  %166 = icmp eq i32 %165, 0
  br i1 %166, label %176, label %175

167:                                              ; preds = %153, %148
  %168 = load ptr, ptr %4, align 8
  %169 = getelementptr inbounds nuw %struct.ColumnDef, ptr %168, i32 0, i32 9
  %170 = load ptr, ptr %169, align 8
  %171 = load ptr, ptr %5, align 8
  %172 = getelementptr inbounds nuw %struct.ColumnDef, ptr %171, i32 0, i32 9
  %173 = load ptr, ptr %172, align 8
  %174 = icmp eq ptr %170, %173
  br i1 %174, label %176, label %175

175:                                              ; preds = %167, %158
  store i1 false, ptr %3, align 1
  br label %281

176:                                              ; preds = %167, %158
  br label %177

177:                                              ; preds = %176
  br label %178

178:                                              ; preds = %177
  %179 = load ptr, ptr %4, align 8
  %180 = getelementptr inbounds nuw %struct.ColumnDef, ptr %179, i32 0, i32 10
  %181 = load ptr, ptr %180, align 8
  %182 = load ptr, ptr %5, align 8
  %183 = getelementptr inbounds nuw %struct.ColumnDef, ptr %182, i32 0, i32 10
  %184 = load ptr, ptr %183, align 8
  %185 = call zeroext i1 @equal(ptr noundef %181, ptr noundef %184)
  br i1 %185, label %187, label %186

186:                                              ; preds = %178
  store i1 false, ptr %3, align 1
  br label %281

187:                                              ; preds = %178
  br label %188

188:                                              ; preds = %187
  br label %189

189:                                              ; preds = %188
  %190 = load ptr, ptr %4, align 8
  %191 = getelementptr inbounds nuw %struct.ColumnDef, ptr %190, i32 0, i32 11
  %192 = load ptr, ptr %191, align 8
  %193 = load ptr, ptr %5, align 8
  %194 = getelementptr inbounds nuw %struct.ColumnDef, ptr %193, i32 0, i32 11
  %195 = load ptr, ptr %194, align 8
  %196 = call zeroext i1 @equal(ptr noundef %192, ptr noundef %195)
  br i1 %196, label %198, label %197

197:                                              ; preds = %189
  store i1 false, ptr %3, align 1
  br label %281

198:                                              ; preds = %189
  br label %199

199:                                              ; preds = %198
  br label %200

200:                                              ; preds = %199
  %201 = load ptr, ptr %4, align 8
  %202 = getelementptr inbounds nuw %struct.ColumnDef, ptr %201, i32 0, i32 12
  %203 = load i8, ptr %202, align 8
  %204 = sext i8 %203 to i32
  %205 = load ptr, ptr %5, align 8
  %206 = getelementptr inbounds nuw %struct.ColumnDef, ptr %205, i32 0, i32 12
  %207 = load i8, ptr %206, align 8
  %208 = sext i8 %207 to i32
  %209 = icmp ne i32 %204, %208
  br i1 %209, label %210, label %211

210:                                              ; preds = %200
  store i1 false, ptr %3, align 1
  br label %281

211:                                              ; preds = %200
  br label %212

212:                                              ; preds = %211
  br label %213

213:                                              ; preds = %212
  %214 = load ptr, ptr %4, align 8
  %215 = getelementptr inbounds nuw %struct.ColumnDef, ptr %214, i32 0, i32 13
  %216 = load ptr, ptr %215, align 8
  %217 = load ptr, ptr %5, align 8
  %218 = getelementptr inbounds nuw %struct.ColumnDef, ptr %217, i32 0, i32 13
  %219 = load ptr, ptr %218, align 8
  %220 = call zeroext i1 @equal(ptr noundef %216, ptr noundef %219)
  br i1 %220, label %222, label %221

221:                                              ; preds = %213
  store i1 false, ptr %3, align 1
  br label %281

222:                                              ; preds = %213
  br label %223

223:                                              ; preds = %222
  br label %224

224:                                              ; preds = %223
  %225 = load ptr, ptr %4, align 8
  %226 = getelementptr inbounds nuw %struct.ColumnDef, ptr %225, i32 0, i32 14
  %227 = load i8, ptr %226, align 8
  %228 = sext i8 %227 to i32
  %229 = load ptr, ptr %5, align 8
  %230 = getelementptr inbounds nuw %struct.ColumnDef, ptr %229, i32 0, i32 14
  %231 = load i8, ptr %230, align 8
  %232 = sext i8 %231 to i32
  %233 = icmp ne i32 %228, %232
  br i1 %233, label %234, label %235

234:                                              ; preds = %224
  store i1 false, ptr %3, align 1
  br label %281

235:                                              ; preds = %224
  br label %236

236:                                              ; preds = %235
  br label %237

237:                                              ; preds = %236
  %238 = load ptr, ptr %4, align 8
  %239 = getelementptr inbounds nuw %struct.ColumnDef, ptr %238, i32 0, i32 15
  %240 = load ptr, ptr %239, align 8
  %241 = load ptr, ptr %5, align 8
  %242 = getelementptr inbounds nuw %struct.ColumnDef, ptr %241, i32 0, i32 15
  %243 = load ptr, ptr %242, align 8
  %244 = call zeroext i1 @equal(ptr noundef %240, ptr noundef %243)
  br i1 %244, label %246, label %245

245:                                              ; preds = %237
  store i1 false, ptr %3, align 1
  br label %281

246:                                              ; preds = %237
  br label %247

247:                                              ; preds = %246
  br label %248

248:                                              ; preds = %247
  %249 = load ptr, ptr %4, align 8
  %250 = getelementptr inbounds nuw %struct.ColumnDef, ptr %249, i32 0, i32 16
  %251 = load i32, ptr %250, align 8
  %252 = load ptr, ptr %5, align 8
  %253 = getelementptr inbounds nuw %struct.ColumnDef, ptr %252, i32 0, i32 16
  %254 = load i32, ptr %253, align 8
  %255 = icmp ne i32 %251, %254
  br i1 %255, label %256, label %257

256:                                              ; preds = %248
  store i1 false, ptr %3, align 1
  br label %281

257:                                              ; preds = %248
  br label %258

258:                                              ; preds = %257
  br label %259

259:                                              ; preds = %258
  %260 = load ptr, ptr %4, align 8
  %261 = getelementptr inbounds nuw %struct.ColumnDef, ptr %260, i32 0, i32 17
  %262 = load ptr, ptr %261, align 8
  %263 = load ptr, ptr %5, align 8
  %264 = getelementptr inbounds nuw %struct.ColumnDef, ptr %263, i32 0, i32 17
  %265 = load ptr, ptr %264, align 8
  %266 = call zeroext i1 @equal(ptr noundef %262, ptr noundef %265)
  br i1 %266, label %268, label %267

267:                                              ; preds = %259
  store i1 false, ptr %3, align 1
  br label %281

268:                                              ; preds = %259
  br label %269

269:                                              ; preds = %268
  br label %270

270:                                              ; preds = %269
  %271 = load ptr, ptr %4, align 8
  %272 = getelementptr inbounds nuw %struct.ColumnDef, ptr %271, i32 0, i32 18
  %273 = load ptr, ptr %272, align 8
  %274 = load ptr, ptr %5, align 8
  %275 = getelementptr inbounds nuw %struct.ColumnDef, ptr %274, i32 0, i32 18
  %276 = load ptr, ptr %275, align 8
  %277 = call zeroext i1 @equal(ptr noundef %273, ptr noundef %276)
  br i1 %277, label %279, label %278

278:                                              ; preds = %270
  store i1 false, ptr %3, align 1
  br label %281

279:                                              ; preds = %270
  br label %280

280:                                              ; preds = %279
  store i1 true, ptr %3, align 1
  br label %281

281:                                              ; preds = %280, %278, %267, %256, %245, %234, %221, %210, %197, %186, %175, %145, %132, %117, %102, %87, %74, %44, %33
  %282 = load i1, ptr %3, align 1
  ret i1 %282
}