; Function Attrs: nounwind uwtable
define internal fastcc zeroext i1 @_equalColumnDef(ptr noundef nonnull readonly captures(none) %0, ptr noundef nonnull readonly captures(none) %1) unnamed_addr #0 {
  %3 = getelementptr inbounds nuw i8, ptr %0, i64 8
  %4 = load ptr, ptr %3, align 8
  %.not = icmp eq ptr %4, null
  %.phi.trans.insert = getelementptr inbounds nuw i8, ptr %1, i64 8
  %.pre = load ptr, ptr %.phi.trans.insert, align 8
  br i1 %.not, label %9, label %5

5:                                                ; preds = %2
  %.not55 = icmp eq ptr %.pre, null
  br i1 %.not55, label %.thread, label %6

6:                                                ; preds = %5
  %7 = tail call i32 @strcmp(ptr noundef nonnull dereferenceable(1) %4, ptr noundef nonnull dereferenceable(1) %.pre) #11
  %8 = icmp eq i32 %7, 0
  br i1 %8, label %11, label %.thread

9:                                                ; preds = %2
  %10 = icmp eq ptr %4, %.pre
  br i1 %10, label %11, label %.thread

11:                                               ; preds = %9, %6
  %12 = getelementptr inbounds nuw i8, ptr %0, i64 16
  %13 = load ptr, ptr %12, align 8
  %14 = getelementptr inbounds nuw i8, ptr %1, i64 16
  %15 = load ptr, ptr %14, align 8
  %16 = tail call zeroext i1 @equal(ptr noundef %13, ptr noundef %15)
  br i1 %16, label %17, label %.thread

17:                                               ; preds = %11
  %18 = getelementptr inbounds nuw i8, ptr %0, i64 24
  %19 = load ptr, ptr %18, align 8
  %.not56 = icmp eq ptr %19, null
  %.phi.trans.insert69 = getelementptr inbounds nuw i8, ptr %1, i64 24
  %.pre70 = load ptr, ptr %.phi.trans.insert69, align 8
  br i1 %.not56, label %24, label %20

20:                                               ; preds = %17
  %.not57 = icmp eq ptr %.pre70, null
  br i1 %.not57, label %.thread, label %21

21:                                               ; preds = %20
  %22 = tail call i32 @strcmp(ptr noundef nonnull dereferenceable(1) %19, ptr noundef nonnull dereferenceable(1) %.pre70) #11
  %23 = icmp eq i32 %22, 0
  br i1 %23, label %26, label %.thread

24:                                               ; preds = %17
  %25 = icmp eq ptr %19, %.pre70
  br i1 %25, label %26, label %.thread

26:                                               ; preds = %24, %21
  %27 = getelementptr inbounds nuw i8, ptr %0, i64 32
  %28 = load i16, ptr %27, align 8
  %29 = getelementptr inbounds nuw i8, ptr %1, i64 32
  %30 = load i16, ptr %29, align 8
  %.not58 = icmp eq i16 %28, %30
  br i1 %.not58, label %31, label %.thread

31:                                               ; preds = %26
  %32 = getelementptr inbounds nuw i8, ptr %0, i64 34
  %33 = load i8, ptr %32, align 2, !range !4, !noundef !5
  %34 = getelementptr inbounds nuw i8, ptr %1, i64 34
  %35 = load i8, ptr %34, align 2, !range !4, !noundef !5
  %.not59 = icmp eq i8 %33, %35
  br i1 %.not59, label %36, label %.thread

36:                                               ; preds = %31
  %37 = getelementptr inbounds nuw i8, ptr %0, i64 35
  %38 = load i8, ptr %37, align 1, !range !4, !noundef !5
  %39 = getelementptr inbounds nuw i8, ptr %1, i64 35
  %40 = load i8, ptr %39, align 1, !range !4, !noundef !5
  %.not60 = icmp eq i8 %38, %40
  br i1 %.not60, label %41, label %.thread

41:                                               ; preds = %36
  %42 = getelementptr inbounds nuw i8, ptr %0, i64 36
  %43 = load i8, ptr %42, align 4, !range !4, !noundef !5
  %44 = getelementptr inbounds nuw i8, ptr %1, i64 36
  %45 = load i8, ptr %44, align 4, !range !4, !noundef !5
  %.not61 = icmp eq i8 %43, %45
  br i1 %.not61, label %46, label %.thread

46:                                               ; preds = %41
  %47 = getelementptr inbounds nuw i8, ptr %0, i64 37
  %48 = load i8, ptr %47, align 1
  %49 = getelementptr inbounds nuw i8, ptr %1, i64 37
  %50 = load i8, ptr %49, align 1
  %.not62 = icmp eq i8 %48, %50
  br i1 %.not62, label %51, label %.thread

51:                                               ; preds = %46
  %52 = getelementptr inbounds nuw i8, ptr %0, i64 40
  %53 = load ptr, ptr %52, align 8
  %.not63 = icmp eq ptr %53, null
  %.phi.trans.insert72 = getelementptr inbounds nuw i8, ptr %1, i64 40
  %.pre73 = load ptr, ptr %.phi.trans.insert72, align 8
  br i1 %.not63, label %58, label %54

54:                                               ; preds = %51
  %.not64 = icmp eq ptr %.pre73, null
  br i1 %.not64, label %.thread, label %55

55:                                               ; preds = %54
  %56 = tail call i32 @strcmp(ptr noundef nonnull dereferenceable(1) %53, ptr noundef nonnull dereferenceable(1) %.pre73) #11
  %57 = icmp eq i32 %56, 0
  br i1 %57, label %60, label %.thread

58:                                               ; preds = %51
  %59 = icmp eq ptr %53, %.pre73
  br i1 %59, label %60, label %.thread

60:                                               ; preds = %58, %55
  %61 = getelementptr inbounds nuw i8, ptr %0, i64 48
  %62 = load ptr, ptr %61, align 8
  %63 = getelementptr inbounds nuw i8, ptr %1, i64 48
  %64 = load ptr, ptr %63, align 8
  %65 = tail call zeroext i1 @equal(ptr noundef %62, ptr noundef %64)
  br i1 %65, label %66, label %.thread

66:                                               ; preds = %60
  %67 = getelementptr inbounds nuw i8, ptr %0, i64 56
  %68 = load ptr, ptr %67, align 8
  %69 = getelementptr inbounds nuw i8, ptr %1, i64 56
  %70 = load ptr, ptr %69, align 8
  %71 = tail call zeroext i1 @equal(ptr noundef %68, ptr noundef %70)
  br i1 %71, label %72, label %.thread

72:                                               ; preds = %66
  %73 = getelementptr inbounds nuw i8, ptr %0, i64 64
  %74 = load i8, ptr %73, align 8
  %75 = getelementptr inbounds nuw i8, ptr %1, i64 64
  %76 = load i8, ptr %75, align 8
  %.not65 = icmp eq i8 %74, %76
  br i1 %.not65, label %77, label %.thread

77:                                               ; preds = %72
  %78 = getelementptr inbounds nuw i8, ptr %0, i64 72
  %79 = load ptr, ptr %78, align 8
  %80 = getelementptr inbounds nuw i8, ptr %1, i64 72
  %81 = load ptr, ptr %80, align 8
  %82 = tail call zeroext i1 @equal(ptr noundef %79, ptr noundef %81)
  br i1 %82, label %83, label %.thread

83:                                               ; preds = %77
  %84 = getelementptr inbounds nuw i8, ptr %0, i64 80
  %85 = load i8, ptr %84, align 8
  %86 = getelementptr inbounds nuw i8, ptr %1, i64 80
  %87 = load i8, ptr %86, align 8
  %.not66 = icmp eq i8 %85, %87
  br i1 %.not66, label %88, label %.thread

88:                                               ; preds = %83
  %89 = getelementptr inbounds nuw i8, ptr %0, i64 88
  %90 = load ptr, ptr %89, align 8
  %91 = getelementptr inbounds nuw i8, ptr %1, i64 88
  %92 = load ptr, ptr %91, align 8
  %93 = tail call zeroext i1 @equal(ptr noundef %90, ptr noundef %92)
  br i1 %93, label %94, label %.thread

94:                                               ; preds = %88
  %95 = getelementptr inbounds nuw i8, ptr %0, i64 96
  %96 = load i32, ptr %95, align 8
  %97 = getelementptr inbounds nuw i8, ptr %1, i64 96
  %98 = load i32, ptr %97, align 8
  %.not67 = icmp eq i32 %96, %98
  br i1 %.not67, label %99, label %.thread

99:                                               ; preds = %94
  %100 = getelementptr inbounds nuw i8, ptr %0, i64 104
  %101 = load ptr, ptr %100, align 8
  %102 = getelementptr inbounds nuw i8, ptr %1, i64 104
  %103 = load ptr, ptr %102, align 8
  %104 = tail call zeroext i1 @equal(ptr noundef %101, ptr noundef %103)
  br i1 %104, label %105, label %.thread

105:                                              ; preds = %99
  %106 = getelementptr inbounds nuw i8, ptr %0, i64 112
  %107 = load ptr, ptr %106, align 8
  %108 = getelementptr inbounds nuw i8, ptr %1, i64 112
  %109 = load ptr, ptr %108, align 8
  %110 = tail call zeroext i1 @equal(ptr noundef %107, ptr noundef %109)
  br label %.thread

.thread:                                          ; preds = %54, %20, %5, %105, %99, %94, %88, %83, %77, %72, %66, %60, %55, %58, %46, %41, %36, %31, %26, %21, %24, %11, %6, %9
  %.0 = phi i1 [ false, %9 ], [ false, %6 ], [ false, %11 ], [ false, %24 ], [ false, %21 ], [ false, %26 ], [ false, %31 ], [ false, %36 ], [ false, %41 ], [ false, %46 ], [ false, %58 ], [ false, %55 ], [ false, %60 ], [ false, %66 ], [ false, %72 ], [ false, %77 ], [ false, %83 ], [ false, %88 ], [ false, %94 ], [ false, %99 ], [ %110, %105 ], [ false, %5 ], [ false, %20 ], [ false, %54 ]
  ret i1 %.0
}